target datalayout = "e-m:e-p270:32:32-p271:32:32-p272:64:64-i64:64-i128:128-f80:128-n8:16:32:64-S128"
target triple = "x86_64-pc-linux-gnu"

%struct._GtkDarktableIcon = type { %struct._GtkEventBox, ptr, i32, ptr }
%struct._GtkEventBox = type { %struct._GtkBin, ptr }
%struct._GtkBin = type { %struct._GtkContainer, ptr }
%struct._GtkContainer = type { %struct._GtkWidget, ptr }
%struct._GtkWidget = type { %struct._GObject, ptr }
%struct._GObject = type { %struct._GTypeInstance, i32, ptr }
%struct._GTypeInstance = type { ptr }
%struct._GTypeClass = type { i64 }
%struct._cairo_rectangle_int = type { i32, i32, i32, i32 }
%struct._GdkRGBA = type { double, double, double, double }

@dtgtk_icon_get_type.static_g_define_type_id = internal global i64 0, align 8
@__func__._icon_draw = private unnamed_addr constant [11 x i8] c"_icon_draw\00", align 1
@.str.3 = private unnamed_addr constant [15 x i8] c"widget != NULL\00", align 1
@.str.4 = private unnamed_addr constant [22 x i8] c"DTGTK_IS_ICON(widget)\00", align 1

; Function Attrs: nounwind uwtable
define i64 @dtgtk_icon_get_type() #0 {
  %1 = alloca i32, align 4
  %2 = alloca i64, align 8
  %3 = alloca ptr, align 8
  %4 = alloca i64, align 8
  %5 = alloca i64, align 8
  call void @llvm.lifetime.start.p0(i64 8, ptr %2) #8
  call void @llvm.lifetime.start.p0(i64 8, ptr %3) #8
  store ptr @dtgtk_icon_get_type.static_g_define_type_id, ptr %3, align 8, !tbaa !6
  %6 = load ptr, ptr %3, align 8, !tbaa !6
  %7 = load atomic i64, ptr %6 seq_cst, align 8
  store i64 %7, ptr %2, align 8
  %8 = load i64, ptr %2, align 8, !tbaa !11
  store i64 %8, ptr %4, align 8, !tbaa !11
  call void @llvm.lifetime.end.p0(i64 8, ptr %3) #8
  call void @llvm.lifetime.end.p0(i64 8, ptr %2) #8
  %9 = load i64, ptr %4, align 8, !tbaa !11
  %10 = icmp ne i64 %9, 0
  br i1 %10, label %14, label %11

11:                                               ; preds = %0
  %12 = call i32 @g_once_init_enter(ptr noundef @dtgtk_icon_get_type.static_g_define_type_id)
  %13 = icmp ne i32 %12, 0
  br label %14

14:                                               ; preds = %11, %0
  %15 = phi i1 [ false, %0 ], [ %13, %11 ]
  %16 = zext i1 %15 to i32
  store i32 %16, ptr %1, align 4, !tbaa !13
  %17 = load i32, ptr %1, align 4, !tbaa !13
  %18 = icmp ne i32 %17, 0
  br i1 %18, label %19, label %22

19:                                               ; preds = %14
  call void @llvm.lifetime.start.p0(i64 8, ptr %5) #8
  %20 = call i64 @dtgtk_icon_get_type_once()
  store i64 %20, ptr %5, align 8, !tbaa !11
  %21 = load i64, ptr %5, align 8, !tbaa !11
  call void @g_once_init_leave(ptr noundef @dtgtk_icon_get_type.static_g_define_type_id, i64 noundef %21)
  call void @llvm.lifetime.end.p0(i64 8, ptr %5) #8
  br label %22

22:                                               ; preds = %19, %14
  %23 = load i64, ptr @dtgtk_icon_get_type.static_g_define_type_id, align 8, !tbaa !11
  ret i64 %23
}

; Function Attrs: inlinehint nounwind uwtable
define internal ptr @DTGTK_ICON(ptr noundef %0) #6 {
  %2 = alloca ptr, align 8
  store ptr %0, ptr %2, align 8, !tbaa !15
  %3 = load ptr, ptr %2, align 8, !tbaa !15
  %4 = call i64 @dtgtk_icon_get_type()
  %5 = call ptr @g_type_check_instance_cast(ptr noundef %3, i64 noundef %4)
  ret ptr %5
}

; Function Attrs: inlinehint nounwind uwtable
define internal i32 @DTGTK_IS_ICON(ptr noundef %0) #6 {
  %2 = alloca ptr, align 8
  %3 = alloca ptr, align 8
  %4 = alloca i64, align 8
  %5 = alloca i32, align 4
  %6 = alloca i32, align 4
  store ptr %0, ptr %2, align 8, !tbaa !15
  call void @llvm.lifetime.start.p0(i64 8, ptr %3) #8
  %7 = load ptr, ptr %2, align 8, !tbaa !15
  store ptr %7, ptr %3, align 8, !tbaa !51
  call void @llvm.lifetime.start.p0(i64 8, ptr %4) #8
  %8 = call i64 @dtgtk_icon_get_type()
  store i64 %8, ptr %4, align 8, !tbaa !11
  call void @llvm.lifetime.start.p0(i64 4, ptr %5) #8
  %9 = load ptr, ptr %3, align 8, !tbaa !51
  %10 = icmp ne ptr %9, null
  br i1 %10, label %12, label %11

11:                                               ; preds = %1
  store i32 0, ptr %5, align 4, !tbaa !13
  br label %31

12:                                               ; preds = %1
  %13 = load ptr, ptr %3, align 8, !tbaa !51
  %14 = getelementptr inbounds nuw %struct._GTypeInstance, ptr %13, i32 0, i32 0
  %15 = load ptr, ptr %14, align 8, !tbaa !53
  %16 = icmp ne ptr %15, null
  br i1 %16, label %17, label %26

17:                                               ; preds = %12
  %18 = load ptr, ptr %3, align 8, !tbaa !51
  %19 = getelementptr inbounds nuw %struct._GTypeInstance, ptr %18, i32 0, i32 0
  %20 = load ptr, ptr %19, align 8, !tbaa !53
  %21 = getelementptr inbounds nuw %struct._GTypeClass, ptr %20, i32 0, i32 0
  %22 = load i64, ptr %21, align 8, !tbaa !54
  %23 = load i64, ptr %4, align 8, !tbaa !11
  %24 = icmp eq i64 %22, %23
  br i1 %24, label %25, label %26

25:                                               ; preds = %17
  store i32 1, ptr %5, align 4, !tbaa !13
  br label %30

26:                                               ; preds = %17, %12
  %27 = load ptr, ptr %3, align 8, !tbaa !51
  %28 = load i64, ptr %4, align 8, !tbaa !11
  %29 = call i32 @g_type_check_instance_is_a(ptr noundef %27, i64 noundef %28) #10
  store i32 %29, ptr %5, align 4, !tbaa !13
  br label %30

30:                                               ; preds = %26, %25
  br label %31

31:                                               ; preds = %30, %11
  %32 = load i32, ptr %5, align 4, !tbaa !13
  store i32 %32, ptr %6, align 4, !tbaa !13
  call void @llvm.lifetime.end.p0(i64 4, ptr %5) #8
  call void @llvm.lifetime.end.p0(i64 8, ptr %4) #8
  call void @llvm.lifetime.end.p0(i64 8, ptr %3) #8
  %33 = load i32, ptr %6, align 4, !tbaa !13
  ret i32 %33
}

; Function Attrs: nounwind uwtable
define internal i32 @_icon_draw(ptr noundef %0, ptr noundef %1) #0 {
  %3 = alloca i32, align 4
  %4 = alloca ptr, align 8
  %5 = alloca ptr, align 8
  %6 = alloca i32, align 4
  %7 = alloca i32, align 4
  %8 = alloca i32, align 4
  %9 = alloca i32, align 4
  %10 = alloca %struct._cairo_rectangle_int, align 4
  %11 = alloca i32, align 4
  %12 = alloca %struct._GdkRGBA, align 8
  %13 = alloca ptr, align 8
  store ptr %0, ptr %4, align 8, !tbaa !34
  store ptr %1, ptr %5, align 8, !tbaa !44
  br label %14

14:                                               ; preds = %2
  call void @llvm.lifetime.start.p0(i64 4, ptr %6) #8
  %15 = load ptr, ptr %4, align 8, !tbaa !34
  %16 = icmp ne ptr %15, null
  br i1 %16, label %17, label %18

17:                                               ; preds = %14
  store i32 1, ptr %6, align 4, !tbaa !13
  br label %19

18:                                               ; preds = %14
  store i32 0, ptr %6, align 4, !tbaa !13
  br label %19

19:                                               ; preds = %18, %17
  %20 = load i32, ptr %6, align 4, !tbaa !13
  store i32 %20, ptr %7, align 4, !tbaa !13
  call void @llvm.lifetime.end.p0(i64 4, ptr %6) #8
  %21 = load i32, ptr %7, align 4, !tbaa !13
  %22 = sext i32 %21 to i64
  %23 = call i64 @llvm.expect.i64(i64 %22, i64 1)
  %24 = icmp ne i64 %23, 0
  br i1 %24, label %25, label %26

25:                                               ; preds = %19
  br label %27

26:                                               ; preds = %19
  call void @g_return_if_fail_warning(ptr noundef null, ptr noundef @__func__._icon_draw, ptr noundef @.str.3)
  store i32 0, ptr %3, align 4
  br label %77

27:                                               ; preds = %25
  br label %28

28:                                               ; preds = %27
  br label %29

29:                                               ; preds = %28
  call void @llvm.lifetime.start.p0(i64 4, ptr %8) #8
  %30 = load ptr, ptr %4, align 8, !tbaa !34
  %31 = call i32 @DTGTK_IS_ICON(ptr noundef %30)
  %32 = icmp ne i32 %31, 0
  br i1 %32, label %33, label %34

33:                                               ; preds = %29
  store i32 1, ptr %8, align 4, !tbaa !13
  br label %35

34:                                               ; preds = %29
  store i32 0, ptr %8, align 4, !tbaa !13
  br label %35

35:                                               ; preds = %34, %33
  %36 = load i32, ptr %8, align 4, !tbaa !13
  store i32 %36, ptr %9, align 4, !tbaa !13
  call void @llvm.lifetime.end.p0(i64 4, ptr %8) #8
  %37 = load i32, ptr %9, align 4, !tbaa !13
  %38 = sext i32 %37 to i64
  %39 = call i64 @llvm.expect.i64(i64 %38, i64 1)
  %40 = icmp ne i64 %39, 0
  br i1 %40, label %41, label %42

41:                                               ; preds = %35
  br label %43

42:                                               ; preds = %35
  call void @g_return_if_fail_warning(ptr noundef null, ptr noundef @__func__._icon_draw, ptr noundef @.str.4)
  store i32 0, ptr %3, align 4
  br label %77

43:                                               ; preds = %41
  br label %44

44:                                               ; preds = %43
  call void @llvm.lifetime.start.p0(i64 16, ptr %10) #8
  %45 = load ptr, ptr %4, align 8, !tbaa !34
  call void @gtk_widget_get_allocation(ptr noundef %45, ptr noundef %10)
  call void @llvm.lifetime.start.p0(i64 4, ptr %11) #8
  %46 = load ptr, ptr %4, align 8, !tbaa !34
  %47 = call i32 @gtk_widget_get_state_flags(ptr noundef %46)
  store i32 %47, ptr %11, align 4, !tbaa !13
  call void @llvm.lifetime.start.p0(i64 32, ptr %12) #8
  call void @llvm.lifetime.start.p0(i64 8, ptr %13) #8
  %48 = load ptr, ptr %4, align 8, !tbaa !34
  %49 = call ptr @gtk_widget_get_style_context(ptr noundef %48)
  store ptr %49, ptr %13, align 8, !tbaa !46
  %50 = load ptr, ptr %13, align 8, !tbaa !46
  %51 = load i32, ptr %11, align 4, !tbaa !13
  call void @gtk_style_context_get_color(ptr noundef %50, i32 noundef %51, ptr noundef %12)
  %52 = load ptr, ptr %5, align 8, !tbaa !44
  call void @gdk_cairo_set_source_rgba(ptr noundef %52, ptr noundef %12)
  %53 = load ptr, ptr %4, align 8, !tbaa !34
  %54 = call ptr @DTGTK_ICON(ptr noundef %53)
  %55 = getelementptr inbounds nuw %struct._GtkDarktableIcon, ptr %54, i32 0, i32 1
  %56 = load ptr, ptr %55, align 8, !tbaa !18
  %57 = icmp ne ptr %56, null
  br i1 %57, label %58, label %76

58:                                               ; preds = %44
  %59 = load ptr, ptr %4, align 8, !tbaa !34
  %60 = call ptr @DTGTK_ICON(ptr noundef %59)
  %61 = getelementptr inbounds nuw %struct._GtkDarktableIcon, ptr %60, i32 0, i32 1
  %62 = load ptr, ptr %61, align 8, !tbaa !18
  %63 = load ptr, ptr %5, align 8, !tbaa !44
  %64 = getelementptr inbounds nuw %struct._cairo_rectangle_int, ptr %10, i32 0, i32 2
  %65 = load i32, ptr %64, align 4, !tbaa !48
  %66 = getelementptr inbounds nuw %struct._cairo_rectangle_int, ptr %10, i32 0, i32 3
  %67 = load i32, ptr %66, align 4, !tbaa !50
  %68 = load ptr, ptr %4, align 8, !tbaa !34
  %69 = call ptr @DTGTK_ICON(ptr noundef %68)
  %70 = getelementptr inbounds nuw %struct._GtkDarktableIcon, ptr %69, i32 0, i32 2
  %71 = load i32, ptr %70, align 8, !tbaa !32
  %72 = load ptr, ptr %4, align 8, !tbaa !34
  %73 = call ptr @DTGTK_ICON(ptr noundef %72)
  %74 = getelementptr inbounds nuw %struct._GtkDarktableIcon, ptr %73, i32 0, i32 3
  %75 = load ptr, ptr %74, align 8, !tbaa !33
  call void %62(ptr noundef %63, i32 noundef 0, i32 noundef 0, i32 noundef %65, i32 noundef %67, i32 noundef %71, ptr noundef %75)
  br label %76

76:                                               ; preds = %58, %44
  store i32 0, ptr %3, align 4
  call void @llvm.lifetime.end.p0(i64 8, ptr %13) #8
  call void @llvm.lifetime.end.p0(i64 32, ptr %12) #8
  call void @llvm.lifetime.end.p0(i64 4, ptr %11) #8
  call void @llvm.lifetime.end.p0(i64 16, ptr %10) #8
  br label %77

77:                                               ; preds = %76, %42, %26
  %78 = load i32, ptr %3, align 4
  ret i32 %78
}