; Function Attrs: nounwind uwtable
define internal noundef i32 @_icon_draw(ptr noundef %0, ptr noundef %1) #0 {
  %3 = alloca %struct._cairo_rectangle_int, align 4
  %4 = alloca %struct._GdkRGBA, align 8
  %.not = icmp eq ptr %0, null
  br i1 %.not, label %5, label %6, !prof !28

5:                                                ; preds = %2
  tail call void @g_return_if_fail_warning(ptr noundef null, ptr noundef nonnull @__func__._icon_draw, ptr noundef nonnull @.str.3) #7
  br label %64

6:                                                ; preds = %2
  %7 = load atomic i64, ptr @dtgtk_icon_get_type.static_g_define_type_id seq_cst, align 8
  %.not.i.i = icmp eq i64 %7, 0
  br i1 %.not.i.i, label %8, label %12

8:                                                ; preds = %6
  %9 = tail call i32 @g_once_init_enter(ptr noundef nonnull @dtgtk_icon_get_type.static_g_define_type_id) #7
  %.not4.i.i = icmp eq i32 %9, 0
  br i1 %.not4.i.i, label %12, label %10

10:                                               ; preds = %8
  %11 = tail call fastcc i64 @dtgtk_icon_get_type_once()
  tail call void @g_once_init_leave(ptr noundef nonnull @dtgtk_icon_get_type.static_g_define_type_id, i64 noundef %11) #7
  br label %12

12:                                               ; preds = %6, %8, %10
  %13 = load i64, ptr @dtgtk_icon_get_type.static_g_define_type_id, align 8, !tbaa !6
  %14 = load ptr, ptr %0, align 8, !tbaa !37
  %.not10.i = icmp eq ptr %14, null
  br i1 %.not10.i, label %DTGTK_IS_ICON.exit, label %15

15:                                               ; preds = %12
  %16 = load i64, ptr %14, align 8, !tbaa !38
  %17 = icmp eq i64 %16, %13
  br i1 %17, label %DTGTK_IS_ICON.exit.thread, label %DTGTK_IS_ICON.exit

DTGTK_IS_ICON.exit:                               ; preds = %12, %15
  %18 = tail call i32 @g_type_check_instance_is_a(ptr noundef nonnull readonly %0, i64 noundef %13) #9
  %.not20 = icmp eq i32 %18, 0
  br i1 %.not20, label %19, label %DTGTK_IS_ICON.exit.thread, !prof !39

19:                                               ; preds = %DTGTK_IS_ICON.exit
  tail call void @g_return_if_fail_warning(ptr noundef null, ptr noundef nonnull @__func__._icon_draw, ptr noundef nonnull @.str.4) #7
  br label %64

DTGTK_IS_ICON.exit.thread:                        ; preds = %15, %DTGTK_IS_ICON.exit
  call void @llvm.lifetime.start.p0(i64 16, ptr nonnull %3) #7
  call void @gtk_widget_get_allocation(ptr noundef nonnull %0, ptr noundef nonnull %3) #7
  %20 = call i32 @gtk_widget_get_state_flags(ptr noundef nonnull %0) #7
  call void @llvm.lifetime.start.p0(i64 32, ptr nonnull %4) #7
  %21 = call ptr @gtk_widget_get_style_context(ptr noundef nonnull %0) #7
  call void @gtk_style_context_get_color(ptr noundef %21, i32 noundef %20, ptr noundef nonnull %4) #7
  call void @gdk_cairo_set_source_rgba(ptr noundef %1, ptr noundef nonnull %4) #7
  %22 = load atomic i64, ptr @dtgtk_icon_get_type.static_g_define_type_id seq_cst, align 8
  %.not.i.i23 = icmp eq i64 %22, 0
  br i1 %.not.i.i23, label %23, label %DTGTK_ICON.exit

23:                                               ; preds = %DTGTK_IS_ICON.exit.thread
  %24 = call i32 @g_once_init_enter(ptr noundef nonnull @dtgtk_icon_get_type.static_g_define_type_id) #7
  %.not4.i.i25 = icmp eq i32 %24, 0
  br i1 %.not4.i.i25, label %DTGTK_ICON.exit, label %25

25:                                               ; preds = %23
  %26 = call fastcc i64 @dtgtk_icon_get_type_once()
  call void @g_once_init_leave(ptr noundef nonnull @dtgtk_icon_get_type.static_g_define_type_id, i64 noundef %26) #7
  br label %DTGTK_ICON.exit

DTGTK_ICON.exit:                                  ; preds = %DTGTK_IS_ICON.exit.thread, %23, %25
  %27 = load i64, ptr @dtgtk_icon_get_type.static_g_define_type_id, align 8, !tbaa !6
  %28 = call ptr @g_type_check_instance_cast(ptr noundef nonnull %0, i64 noundef %27) #7
  %29 = getelementptr inbounds nuw i8, ptr %28, i64 56
  %30 = load ptr, ptr %29, align 8, !tbaa !10
  %.not22 = icmp eq ptr %30, null
  br i1 %.not22, label %63, label %31

31:                                               ; preds = %DTGTK_ICON.exit
  %32 = load atomic i64, ptr @dtgtk_icon_get_type.static_g_define_type_id seq_cst, align 8
  %.not.i.i26 = icmp eq i64 %32, 0
  br i1 %.not.i.i26, label %33, label %DTGTK_ICON.exit29

33:                                               ; preds = %31
  %34 = call i32 @g_once_init_enter(ptr noundef nonnull @dtgtk_icon_get_type.static_g_define_type_id) #7
  %.not4.i.i28 = icmp eq i32 %34, 0
  br i1 %.not4.i.i28, label %DTGTK_ICON.exit29, label %35

35:                                               ; preds = %33
  %36 = call fastcc i64 @dtgtk_icon_get_type_once()
  call void @g_once_init_leave(ptr noundef nonnull @dtgtk_icon_get_type.static_g_define_type_id, i64 noundef %36) #7
  br label %DTGTK_ICON.exit29

DTGTK_ICON.exit29:                                ; preds = %31, %33, %35
  %37 = load i64, ptr @dtgtk_icon_get_type.static_g_define_type_id, align 8, !tbaa !6
  %38 = call ptr @g_type_check_instance_cast(ptr noundef nonnull %0, i64 noundef %37) #7
  %39 = getelementptr inbounds nuw i8, ptr %38, i64 56
  %40 = load ptr, ptr %39, align 8, !tbaa !10
  %41 = getelementptr inbounds nuw i8, ptr %3, i64 8
  %42 = load i32, ptr %41, align 4, !tbaa !40
  %43 = getelementptr inbounds nuw i8, ptr %3, i64 12
  %44 = load i32, ptr %43, align 4, !tbaa !42
  %45 = load atomic i64, ptr @dtgtk_icon_get_type.static_g_define_type_id seq_cst, align 8
  %.not.i.i30 = icmp eq i64 %45, 0
  br i1 %.not.i.i30, label %46, label %DTGTK_ICON.exit33

46:                                               ; preds = %DTGTK_ICON.exit29
  %47 = call i32 @g_once_init_enter(ptr noundef nonnull @dtgtk_icon_get_type.static_g_define_type_id) #7
  %.not4.i.i32 = icmp eq i32 %47, 0
  br i1 %.not4.i.i32, label %DTGTK_ICON.exit33, label %48

48:                                               ; preds = %46
  %49 = call fastcc i64 @dtgtk_icon_get_type_once()
  call void @g_once_init_leave(ptr noundef nonnull @dtgtk_icon_get_type.static_g_define_type_id, i64 noundef %49) #7
  br label %DTGTK_ICON.exit33

DTGTK_ICON.exit33:                                ; preds = %DTGTK_ICON.exit29, %46, %48
  %50 = load i64, ptr @dtgtk_icon_get_type.static_g_define_type_id, align 8, !tbaa !6
  %51 = call ptr @g_type_check_instance_cast(ptr noundef nonnull %0, i64 noundef %50) #7
  %52 = getelementptr inbounds nuw i8, ptr %51, i64 64
  %53 = load i32, ptr %52, align 8, !tbaa !26
  %54 = load atomic i64, ptr @dtgtk_icon_get_type.static_g_define_type_id seq_cst, align 8
  %.not.i.i34 = icmp eq i64 %54, 0
  br i1 %.not.i.i34, label %55, label %DTGTK_ICON.exit37

55:                                               ; preds = %DTGTK_ICON.exit33
  %56 = call i32 @g_once_init_enter(ptr noundef nonnull @dtgtk_icon_get_type.static_g_define_type_id) #7
  %.not4.i.i36 = icmp eq i32 %56, 0
  br i1 %.not4.i.i36, label %DTGTK_ICON.exit37, label %57

57:                                               ; preds = %55
  %58 = call fastcc i64 @dtgtk_icon_get_type_once()
  call void @g_once_init_leave(ptr noundef nonnull @dtgtk_icon_get_type.static_g_define_type_id, i64 noundef %58) #7
  br label %DTGTK_ICON.exit37

DTGTK_ICON.exit37:                                ; preds = %DTGTK_ICON.exit33, %55, %57
  %59 = load i64, ptr @dtgtk_icon_get_type.static_g_define_type_id, align 8, !tbaa !6
  %60 = call ptr @g_type_check_instance_cast(ptr noundef nonnull %0, i64 noundef %59) #7
  %61 = getelementptr inbounds nuw i8, ptr %60, i64 72
  %62 = load ptr, ptr %61, align 8, !tbaa !27
  call void %40(ptr noundef %1, i32 noundef 0, i32 noundef 0, i32 noundef %42, i32 noundef %44, i32 noundef %53, ptr noundef %62) #7
  br label %63

63:                                               ; preds = %DTGTK_ICON.exit37, %DTGTK_ICON.exit
  call void @llvm.lifetime.end.p0(i64 32, ptr nonnull %4) #7
  call void @llvm.lifetime.end.p0(i64 16, ptr nonnull %3) #7
  br label %64

64:                                               ; preds = %63, %19, %5
  ret i32 0
}